target datalayout = "e-m:e-p270:32:32-p271:32:32-p272:64:64-i64:64-i128:128-f80:128-n8:16:32:64-S128"
target triple = "x86_64-pc-linux-gnu"

; Function Attrs: nounwind uwtable
define i32 @mat3inv_float(ptr noundef %0, ptr noundef %1) #0 {
  %3 = alloca i32, align 4
  %4 = alloca ptr, align 8
  %5 = alloca ptr, align 8
  %6 = alloca float, align 4
  %7 = alloca float, align 4
  %8 = alloca i32, align 4
  %9 = alloca float, align 4
  store ptr %0, ptr %4, align 8, !tbaa !6
  store ptr %1, ptr %5, align 8, !tbaa !6
  call void @llvm.lifetime.start.p0(i64 4, ptr %6) #3
  %10 = load ptr, ptr %5, align 8, !tbaa !6
  %11 = getelementptr inbounds float, ptr %10, i64 0
  %12 = load float, ptr %11, align 4, !tbaa !11
  %13 = load ptr, ptr %5, align 8, !tbaa !6
  %14 = getelementptr inbounds float, ptr %13, i64 8
  %15 = load float, ptr %14, align 4, !tbaa !11
  %16 = load ptr, ptr %5, align 8, !tbaa !6
  %17 = getelementptr inbounds float, ptr %16, i64 4
  %18 = load float, ptr %17, align 4, !tbaa !11
  %19 = fmul reassoc nsz arcp contract afn float %15, %18
  %20 = load ptr, ptr %5, align 8, !tbaa !6
  %21 = getelementptr inbounds float, ptr %20, i64 7
  %22 = load float, ptr %21, align 4, !tbaa !11
  %23 = load ptr, ptr %5, align 8, !tbaa !6
  %24 = getelementptr inbounds float, ptr %23, i64 5
  %25 = load float, ptr %24, align 4, !tbaa !11
  %26 = fmul reassoc nsz arcp contract afn float %22, %25
  %27 = fsub reassoc nsz arcp contract afn float %19, %26
  %28 = fmul reassoc nsz arcp contract afn float %12, %27
  %29 = load ptr, ptr %5, align 8, !tbaa !6
  %30 = getelementptr inbounds float, ptr %29, i64 3
  %31 = load float, ptr %30, align 4, !tbaa !11
  %32 = load ptr, ptr %5, align 8, !tbaa !6
  %33 = getelementptr inbounds float, ptr %32, i64 8
  %34 = load float, ptr %33, align 4, !tbaa !11
  %35 = load ptr, ptr %5, align 8, !tbaa !6
  %36 = getelementptr inbounds float, ptr %35, i64 1
  %37 = load float, ptr %36, align 4, !tbaa !11
  %38 = fmul reassoc nsz arcp contract afn float %34, %37
  %39 = load ptr, ptr %5, align 8, !tbaa !6
  %40 = getelementptr inbounds float, ptr %39, i64 7
  %41 = load float, ptr %40, align 4, !tbaa !11
  %42 = load ptr, ptr %5, align 8, !tbaa !6
  %43 = getelementptr inbounds float, ptr %42, i64 2
  %44 = load float, ptr %43, align 4, !tbaa !11
  %45 = fmul reassoc nsz arcp contract afn float %41, %44
  %46 = fsub reassoc nsz arcp contract afn float %38, %45
  %47 = fmul reassoc nsz arcp contract afn float %31, %46
  %48 = fsub reassoc nsz arcp contract afn float %28, %47
  %49 = load ptr, ptr %5, align 8, !tbaa !6
  %50 = getelementptr inbounds float, ptr %49, i64 6
  %51 = load float, ptr %50, align 4, !tbaa !11
  %52 = load ptr, ptr %5, align 8, !tbaa !6
  %53 = getelementptr inbounds float, ptr %52, i64 5
  %54 = load float, ptr %53, align 4, !tbaa !11
  %55 = load ptr, ptr %5, align 8, !tbaa !6
  %56 = getelementptr inbounds float, ptr %55, i64 1
  %57 = load float, ptr %56, align 4, !tbaa !11
  %58 = fmul reassoc nsz arcp contract afn float %54, %57
  %59 = load ptr, ptr %5, align 8, !tbaa !6
  %60 = getelementptr inbounds float, ptr %59, i64 4
  %61 = load float, ptr %60, align 4, !tbaa !11
  %62 = load ptr, ptr %5, align 8, !tbaa !6
  %63 = getelementptr inbounds float, ptr %62, i64 2
  %64 = load float, ptr %63, align 4, !tbaa !11
  %65 = fmul reassoc nsz arcp contract afn float %61, %64
  %66 = fsub reassoc nsz arcp contract afn float %58, %65
  %67 = fmul reassoc nsz arcp contract afn float %51, %66
  %68 = fadd reassoc nsz arcp contract afn float %48, %67
  store float %68, ptr %6, align 4, !tbaa !11
  call void @llvm.lifetime.start.p0(i64 4, ptr %7) #3
  store float 0x3E7AD7F2A0000000, ptr %7, align 4, !tbaa !11
  %69 = load float, ptr %6, align 4, !tbaa !11
  %70 = fpext reassoc nsz arcp contract afn float %69 to double
  %71 = call reassoc nsz arcp contract afn double @llvm.fabs.f64(double %70)
  %72 = fcmp reassoc nsz arcp contract afn olt double %71, 0x3E7AD7F2A0000000
  br i1 %72, label %73, label %74

73:                                               ; preds = %2
  store i32 1, ptr %3, align 4
  store i32 1, ptr %8, align 4
  br label %254

74:                                               ; preds = %2
  call void @llvm.lifetime.start.p0(i64 4, ptr %9) #3
  %75 = load float, ptr %6, align 4, !tbaa !11
  %76 = fpext reassoc nsz arcp contract afn float %75 to double
  %77 = fdiv reassoc nsz arcp contract afn double 1.000000e+00, %76
  %78 = fptrunc reassoc nsz arcp contract afn double %77 to float
  store float %78, ptr %9, align 4, !tbaa !11
  %79 = load float, ptr %9, align 4, !tbaa !11
  %80 = load ptr, ptr %5, align 8, !tbaa !6
  %81 = getelementptr inbounds float, ptr %80, i64 8
  %82 = load float, ptr %81, align 4, !tbaa !11
  %83 = load ptr, ptr %5, align 8, !tbaa !6
  %84 = getelementptr inbounds float, ptr %83, i64 4
  %85 = load float, ptr %84, align 4, !tbaa !11
  %86 = fmul reassoc nsz arcp contract afn float %82, %85
  %87 = load ptr, ptr %5, align 8, !tbaa !6
  %88 = getelementptr inbounds float, ptr %87, i64 7
  %89 = load float, ptr %88, align 4, !tbaa !11
  %90 = load ptr, ptr %5, align 8, !tbaa !6
  %91 = getelementptr inbounds float, ptr %90, i64 5
  %92 = load float, ptr %91, align 4, !tbaa !11
  %93 = fmul reassoc nsz arcp contract afn float %89, %92
  %94 = fsub reassoc nsz arcp contract afn float %86, %93
  %95 = fmul reassoc nsz arcp contract afn float %79, %94
  %96 = load ptr, ptr %4, align 8, !tbaa !6
  %97 = getelementptr inbounds float, ptr %96, i64 0
  store float %95, ptr %97, align 4, !tbaa !11
  %98 = load float, ptr %9, align 4, !tbaa !11
  %99 = fneg reassoc nsz arcp contract afn float %98
  %100 = load ptr, ptr %5, align 8, !tbaa !6
  %101 = getelementptr inbounds float, ptr %100, i64 8
  %102 = load float, ptr %101, align 4, !tbaa !11
  %103 = load ptr, ptr %5, align 8, !tbaa !6
  %104 = getelementptr inbounds float, ptr %103, i64 1
  %105 = load float, ptr %104, align 4, !tbaa !11
  %106 = fmul reassoc nsz arcp contract afn float %102, %105
  %107 = load ptr, ptr %5, align 8, !tbaa !6
  %108 = getelementptr inbounds float, ptr %107, i64 7
  %109 = load float, ptr %108, align 4, !tbaa !11
  %110 = load ptr, ptr %5, align 8, !tbaa !6
  %111 = getelementptr inbounds float, ptr %110, i64 2
  %112 = load float, ptr %111, align 4, !tbaa !11
  %113 = fmul reassoc nsz arcp contract afn float %109, %112
  %114 = fsub reassoc nsz arcp contract afn float %106, %113
  %115 = fmul reassoc nsz arcp contract afn float %99, %114
  %116 = load ptr, ptr %4, align 8, !tbaa !6
  %117 = getelementptr inbounds float, ptr %116, i64 1
  store float %115, ptr %117, align 4, !tbaa !11
  %118 = load float, ptr %9, align 4, !tbaa !11
  %119 = load ptr, ptr %5, align 8, !tbaa !6
  %120 = getelementptr inbounds float, ptr %119, i64 5
  %121 = load float, ptr %120, align 4, !tbaa !11
  %122 = load ptr, ptr %5, align 8, !tbaa !6
  %123 = getelementptr inbounds float, ptr %122, i64 1
  %124 = load float, ptr %123, align 4, !tbaa !11
  %125 = fmul reassoc nsz arcp contract afn float %121, %124
  %126 = load ptr, ptr %5, align 8, !tbaa !6
  %127 = getelementptr inbounds float, ptr %126, i64 4
  %128 = load float, ptr %127, align 4, !tbaa !11
  %129 = load ptr, ptr %5, align 8, !tbaa !6
  %130 = getelementptr inbounds float, ptr %129, i64 2
  %131 = load float, ptr %130, align 4, !tbaa !11
  %132 = fmul reassoc nsz arcp contract afn float %128, %131
  %133 = fsub reassoc nsz arcp contract afn float %125, %132
  %134 = fmul reassoc nsz arcp contract afn float %118, %133
  %135 = load ptr, ptr %4, align 8, !tbaa !6
  %136 = getelementptr inbounds float, ptr %135, i64 2
  store float %134, ptr %136, align 4, !tbaa !11
  %137 = load float, ptr %9, align 4, !tbaa !11
  %138 = fneg reassoc nsz arcp contract afn float %137
  %139 = load ptr, ptr %5, align 8, !tbaa !6
  %140 = getelementptr inbounds float, ptr %139, i64 8
  %141 = load float, ptr %140, align 4, !tbaa !11
  %142 = load ptr, ptr %5, align 8, !tbaa !6
  %143 = getelementptr inbounds float, ptr %142, i64 3
  %144 = load float, ptr %143, align 4, !tbaa !11
  %145 = fmul reassoc nsz arcp contract afn float %141, %144
  %146 = load ptr, ptr %5, align 8, !tbaa !6
  %147 = getelementptr inbounds float, ptr %146, i64 6
  %148 = load float, ptr %147, align 4, !tbaa !11
  %149 = load ptr, ptr %5, align 8, !tbaa !6
  %150 = getelementptr inbounds float, ptr %149, i64 5
  %151 = load float, ptr %150, align 4, !tbaa !11
  %152 = fmul reassoc nsz arcp contract afn float %148, %151
  %153 = fsub reassoc nsz arcp contract afn float %145, %152
  %154 = fmul reassoc nsz arcp contract afn float %138, %153
  %155 = load ptr, ptr %4, align 8, !tbaa !6
  %156 = getelementptr inbounds float, ptr %155, i64 3
  store float %154, ptr %156, align 4, !tbaa !11
  %157 = load float, ptr %9, align 4, !tbaa !11
  %158 = load ptr, ptr %5, align 8, !tbaa !6
  %159 = getelementptr inbounds float, ptr %158, i64 8
  %160 = load float, ptr %159, align 4, !tbaa !11
  %161 = load ptr, ptr %5, align 8, !tbaa !6
  %162 = getelementptr inbounds float, ptr %161, i64 0
  %163 = load float, ptr %162, align 4, !tbaa !11
  %164 = fmul reassoc nsz arcp contract afn float %160, %163
  %165 = load ptr, ptr %5, align 8, !tbaa !6
  %166 = getelementptr inbounds float, ptr %165, i64 6
  %167 = load float, ptr %166, align 4, !tbaa !11
  %168 = load ptr, ptr %5, align 8, !tbaa !6
  %169 = getelementptr inbounds float, ptr %168, i64 2
  %170 = load float, ptr %169, align 4, !tbaa !11
  %171 = fmul reassoc nsz arcp contract afn float %167, %170
  %172 = fsub reassoc nsz arcp contract afn float %164, %171
  %173 = fmul reassoc nsz arcp contract afn float %157, %172
  %174 = load ptr, ptr %4, align 8, !tbaa !6
  %175 = getelementptr inbounds float, ptr %174, i64 4
  store float %173, ptr %175, align 4, !tbaa !11
  %176 = load float, ptr %9, align 4, !tbaa !11
  %177 = fneg reassoc nsz arcp contract afn float %176
  %178 = load ptr, ptr %5, align 8, !tbaa !6
  %179 = getelementptr inbounds float, ptr %178, i64 5
  %180 = load float, ptr %179, align 4, !tbaa !11
  %181 = load ptr, ptr %5, align 8, !tbaa !6
  %182 = getelementptr inbounds float, ptr %181, i64 0
  %183 = load float, ptr %182, align 4, !tbaa !11
  %184 = fmul reassoc nsz arcp contract afn float %180, %183
  %185 = load ptr, ptr %5, align 8, !tbaa !6
  %186 = getelementptr inbounds float, ptr %185, i64 3
  %187 = load float, ptr %186, align 4, !tbaa !11
  %188 = load ptr, ptr %5, align 8, !tbaa !6
  %189 = getelementptr inbounds float, ptr %188, i64 2
  %190 = load float, ptr %189, align 4, !tbaa !11
  %191 = fmul reassoc nsz arcp contract afn float %187, %190
  %192 = fsub reassoc nsz arcp contract afn float %184, %191
  %193 = fmul reassoc nsz arcp contract afn float %177, %192
  %194 = load ptr, ptr %4, align 8, !tbaa !6
  %195 = getelementptr inbounds float, ptr %194, i64 5
  store float %193, ptr %195, align 4, !tbaa !11
  %196 = load float, ptr %9, align 4, !tbaa !11
  %197 = load ptr, ptr %5, align 8, !tbaa !6
  %198 = getelementptr inbounds float, ptr %197, i64 7
  %199 = load float, ptr %198, align 4, !tbaa !11
  %200 = load ptr, ptr %5, align 8, !tbaa !6
  %201 = getelementptr inbounds float, ptr %200, i64 3
  %202 = load float, ptr %201, align 4, !tbaa !11
  %203 = fmul reassoc nsz arcp contract afn float %199, %202
  %204 = load ptr, ptr %5, align 8, !tbaa !6
  %205 = getelementptr inbounds float, ptr %204, i64 6
  %206 = load float, ptr %205, align 4, !tbaa !11
  %207 = load ptr, ptr %5, align 8, !tbaa !6
  %208 = getelementptr inbounds float, ptr %207, i64 4
  %209 = load float, ptr %208, align 4, !tbaa !11
  %210 = fmul reassoc nsz arcp contract afn float %206, %209
  %211 = fsub reassoc nsz arcp contract afn float %203, %210
  %212 = fmul reassoc nsz arcp contract afn float %196, %211
  %213 = load ptr, ptr %4, align 8, !tbaa !6
  %214 = getelementptr inbounds float, ptr %213, i64 6
  store float %212, ptr %214, align 4, !tbaa !11
  %215 = load float, ptr %9, align 4, !tbaa !11
  %216 = fneg reassoc nsz arcp contract afn float %215
  %217 = load ptr, ptr %5, align 8, !tbaa !6
  %218 = getelementptr inbounds float, ptr %217, i64 7
  %219 = load float, ptr %218, align 4, !tbaa !11
  %220 = load ptr, ptr %5, align 8, !tbaa !6
  %221 = getelementptr inbounds float, ptr %220, i64 0
  %222 = load float, ptr %221, align 4, !tbaa !11
  %223 = fmul reassoc nsz arcp contract afn float %219, %222
  %224 = load ptr, ptr %5, align 8, !tbaa !6
  %225 = getelementptr inbounds float, ptr %224, i64 6
  %226 = load float, ptr %225, align 4, !tbaa !11
  %227 = load ptr, ptr %5, align 8, !tbaa !6
  %228 = getelementptr inbounds float, ptr %227, i64 1
  %229 = load float, ptr %228, align 4, !tbaa !11
  %230 = fmul reassoc nsz arcp contract afn float %226, %229
  %231 = fsub reassoc nsz arcp contract afn float %223, %230
  %232 = fmul reassoc nsz arcp contract afn float %216, %231
  %233 = load ptr, ptr %4, align 8, !tbaa !6
  %234 = getelementptr inbounds float, ptr %233, i64 7
  store float %232, ptr %234, align 4, !tbaa !11
  %235 = load float, ptr %9, align 4, !tbaa !11
  %236 = load ptr, ptr %5, align 8, !tbaa !6
  %237 = getelementptr inbounds float, ptr %236, i64 4
  %238 = load float, ptr %237, align 4, !tbaa !11
  %239 = load ptr, ptr %5, align 8, !tbaa !6
  %240 = getelementptr inbounds float, ptr %239, i64 0
  %241 = load float, ptr %240, align 4, !tbaa !11
  %242 = fmul reassoc nsz arcp contract afn float %238, %241
  %243 = load ptr, ptr %5, align 8, !tbaa !6
  %244 = getelementptr inbounds float, ptr %243, i64 3
  %245 = load float, ptr %244, align 4, !tbaa !11
  %246 = load ptr, ptr %5, align 8, !tbaa !6
  %247 = getelementptr inbounds float, ptr %246, i64 1
  %248 = load float, ptr %247, align 4, !tbaa !11
  %249 = fmul reassoc nsz arcp contract afn float %245, %248
  %250 = fsub reassoc nsz arcp contract afn float %242, %249
  %251 = fmul reassoc nsz arcp contract afn float %235, %250
  %252 = load ptr, ptr %4, align 8, !tbaa !6
  %253 = getelementptr inbounds float, ptr %252, i64 8
  store float %251, ptr %253, align 4, !tbaa !11
  store i32 0, ptr %3, align 4
  store i32 1, ptr %8, align 4
  call void @llvm.lifetime.end.p0(i64 4, ptr %9) #3
  br label %254

254:                                              ; preds = %74, %73
  call void @llvm.lifetime.end.p0(i64 4, ptr %7) #3
  call void @llvm.lifetime.end.p0(i64 4, ptr %6) #3
  %255 = load i32, ptr %3, align 4
  ret i32 %255
}